; Function Attrs: mustprogress uwtable
define dso_local noundef zeroext i1 @_ZNK8cmTarget26HasKnownObjectFileLocationEPNSt7__cxx1112basic_stringIcSt11char_traitsIcESaIcEEE(ptr noundef nonnull align 8 dereferenceable(8) %0, ptr noundef %1) local_unnamed_addr #5 align 2 {
  %3 = load ptr, ptr %0, align 8, !tbaa !22
  %4 = getelementptr inbounds nuw i8, ptr %3, i64 8
  %5 = load ptr, ptr %4, align 8, !tbaa !124
  %6 = tail call noundef ptr @_ZNK10cmMakefile18GetGlobalGeneratorEv(ptr noundef nonnull align 8 dereferenceable(2880) %5)
  %7 = load ptr, ptr %6, align 8, !tbaa !162
  %8 = getelementptr inbounds nuw i8, ptr %7, i64 376
  %9 = load ptr, ptr %8, align 8
  %10 = tail call noundef zeroext i1 %9(ptr noundef nonnull align 8 dereferenceable(1834) %6, ptr noundef nonnull align 8 dereferenceable(8) %0, ptr noundef %1)
  ret i1 %10
}